; Function Attrs: mustprogress uwtable
define hidden void @_ZN7datalog8rule_set13ensure_closedEv(ptr noundef nonnull align 8 dereferenceable(248) %0) local_unnamed_addr #3 align 2 {
  %2 = getelementptr inbounds nuw i8, ptr %0, i64 144
  %3 = load ptr, ptr %2, align 8, !tbaa !150
  %.not = icmp eq ptr %3, null
  br i1 %.not, label %4, label %7

4:                                                ; preds = %1
  %5 = tail call noundef zeroext i1 @_ZN7datalog8rule_set5closeEv(ptr noundef nonnull align 8 dereferenceable(248) %0)
  br i1 %5, label %7, label %6

6:                                                ; preds = %4
  tail call void @_Z26notify_assertion_violationPKciS0_(ptr noundef nonnull @.str.3, i32 noundef 367, ptr noundef nonnull @.str.4)
  tail call void @_Z18invoke_exit_actionj(i32 noundef 114)
  br label %7

7:                                                ; preds = %4, %6, %1
  ret void
}